target datalayout = "e-m:e-p270:32:32-p271:32:32-p272:64:64-i64:64-i128:128-f80:128-n8:16:32:64-S128"
target triple = "x86_64-pc-linux-gnu"

%struct.EventFilterPrivate_HandlerNode_ = type { %struct.EventHandlerRestricted_HandlerNode_, %struct.EventFilters_ }
%struct.EventHandlerRestricted_HandlerNode_ = type { %struct.HandlerNode_, %struct.EventHandlerPrivate_Data_ }
%struct.HandlerNode_ = type { i32, i32, i8, i8, i32 }
%struct.EventHandlerPrivate_Data_ = type { ptr, ptr, ptr, ptr }
%struct.EventFilters_ = type { i32, [10000 x %struct.Filter_] }
%struct.Filter_ = type { i8, %union.anon }
%union.anon = type { %struct.LocationFilter }
%struct.LocationFilter = type { ptr, ptr, i64 }
%struct.ConditionalFilter = type { i32 }

; Function Attrs: nounwind uwtable
define hidden i32 @eventFilter_setConditionalFilter(ptr noundef %0, i32 noundef %1, i32 noundef %2) #0 {
  %4 = alloca i32, align 4
  %5 = alloca ptr, align 8
  %6 = alloca i32, align 4
  %7 = alloca i32, align 4
  %8 = alloca ptr, align 8
  store ptr %0, ptr %5, align 8
  store i32 %1, ptr %6, align 4
  store i32 %2, ptr %7, align 4
  %9 = load ptr, ptr %5, align 8
  %10 = getelementptr inbounds %struct.EventFilterPrivate_HandlerNode_, ptr %9, i32 0, i32 1
  %11 = getelementptr inbounds %struct.EventFilters_, ptr %10, i32 0, i32 1
  %12 = load i32, ptr %6, align 4
  %13 = sext i32 %12 to i64
  %14 = getelementptr inbounds [10000 x %struct.Filter_], ptr %11, i64 0, i64 %13
  %15 = getelementptr inbounds %struct.Filter_, ptr %14, i32 0, i32 1
  store ptr %15, ptr %8, align 8
  %16 = load i32, ptr %6, align 4
  %17 = load ptr, ptr %5, align 8
  %18 = getelementptr inbounds %struct.EventFilterPrivate_HandlerNode_, ptr %17, i32 0, i32 1
  %19 = getelementptr inbounds %struct.EventFilters_, ptr %18, i32 0, i32 0
  %20 = load i32, ptr %19, align 8
  %21 = icmp sge i32 %16, %20
  br i1 %21, label %22, label %23

22:                                               ; preds = %3
  store i32 202, ptr %4, align 4
  br label %34

23:                                               ; preds = %3
  %24 = load ptr, ptr %5, align 8
  %25 = getelementptr inbounds %struct.EventFilterPrivate_HandlerNode_, ptr %24, i32 0, i32 1
  %26 = getelementptr inbounds %struct.EventFilters_, ptr %25, i32 0, i32 1
  %27 = load i32, ptr %6, align 4
  %28 = sext i32 %27 to i64
  %29 = getelementptr inbounds [10000 x %struct.Filter_], ptr %26, i64 0, i64 %28
  %30 = getelementptr inbounds %struct.Filter_, ptr %29, i32 0, i32 0
  store i8 2, ptr %30, align 8
  %31 = load i32, ptr %7, align 4
  %32 = load ptr, ptr %8, align 8
  %33 = getelementptr inbounds %struct.ConditionalFilter, ptr %32, i32 0, i32 0
  store i32 %31, ptr %33, align 4
  store i32 0, ptr %4, align 4
  br label %34

34:                                               ; preds = %23, %22
  %35 = load i32, ptr %4, align 4
  ret i32 %35
}