; Function Attrs: mustprogress nofree norecurse nosync nounwind willreturn memory(argmem: readwrite) uwtable
define hidden range(i32 0, 203) i32 @eventFilter_setConditionalFilter(ptr nocapture noundef %0, i32 noundef %1, i32 noundef %2) local_unnamed_addr #3 {
  %4 = getelementptr inbounds i8, ptr %0, i64 48
  %5 = load i32, ptr %4, align 8
  %.not = icmp sgt i32 %5, %1
  br i1 %.not, label %6, label %11

6:                                                ; preds = %3
  %7 = getelementptr inbounds i8, ptr %0, i64 56
  %8 = sext i32 %1 to i64
  %9 = getelementptr inbounds [10000 x %struct.Filter_], ptr %7, i64 0, i64 %8
  %10 = getelementptr inbounds i8, ptr %9, i64 8
  store i8 2, ptr %9, align 8
  store i32 %2, ptr %10, align 4
  br label %11

11:                                               ; preds = %3, %6
  %.0 = phi i32 [ 0, %6 ], [ 202, %3 ]
  ret i32 %.0
}